target datalayout = "e-m:e-p270:32:32-p271:32:32-p272:64:64-i64:64-i128:128-f80:128-n8:16:32:64-S128"
target triple = "x86_64-pc-linux-gnu"

%"class.std::__cxx11::basic_string" = type { %"struct.std::__cxx11::basic_string<char>::_Alloc_hider", i64, %union.anon }
%"struct.std::__cxx11::basic_string<char>::_Alloc_hider" = type { ptr }
%union.anon = type { i64, [8 x i8] }
%"struct.Assimp::D3DS::Material" = type <{ ptr, %"class.std::__cxx11::basic_string", %struct.aiColor3D, float, float, %struct.aiColor3D, %struct.aiColor3D, i32, float, [4 x i8], %"struct.Assimp::D3DS::Texture", %"struct.Assimp::D3DS::Texture", %"struct.Assimp::D3DS::Texture", %"struct.Assimp::D3DS::Texture", %"struct.Assimp::D3DS::Texture", %"struct.Assimp::D3DS::Texture", %"struct.Assimp::D3DS::Texture", float, %struct.aiColor3D, %"struct.Assimp::D3DS::Texture", i8, [7 x i8] }>
%struct.aiColor3D = type { float, float, float }
%"struct.Assimp::D3DS::Texture" = type { float, %"class.std::__cxx11::basic_string", float, float, float, float, float, i32, i8, i32 }
%"class.Assimp::Discreet3DSImporter" = type <{ %"class.Assimp::BaseImporter", ptr, i16, [6 x i8], ptr, ptr, ptr, %struct.aiColor3D, float, %"class.std::__cxx11::basic_string", i8, i8, [6 x i8] }>
%"class.Assimp::BaseImporter" = type { ptr, double, double, %"class.std::__cxx11::basic_string", %"class.std::__exception_ptr::exception_ptr", ptr }
%"class.std::__exception_ptr::exception_ptr" = type { ptr }
%"struct.Assimp::D3DS::Scene" = type { %"class.std::vector", %"class.std::vector.3", %"class.std::vector.8", %"class.std::vector.13" }
%"class.std::vector" = type { %"struct.std::_Vector_base" }
%"struct.std::_Vector_base" = type { %"struct.std::_Vector_base<Assimp::D3DS::Material, std::allocator<Assimp::D3DS::Material>>::_Vector_impl" }
%"struct.std::_Vector_base<Assimp::D3DS::Material, std::allocator<Assimp::D3DS::Material>>::_Vector_impl" = type { %"struct.std::_Vector_base<Assimp::D3DS::Material, std::allocator<Assimp::D3DS::Material>>::_Vector_impl_data" }
%"struct.std::_Vector_base<Assimp::D3DS::Material, std::allocator<Assimp::D3DS::Material>>::_Vector_impl_data" = type { ptr, ptr, ptr }
%"class.std::vector.3" = type { %"struct.std::_Vector_base.4" }
%"struct.std::_Vector_base.4" = type { %"struct.std::_Vector_base<Assimp::D3DS::Mesh, std::allocator<Assimp::D3DS::Mesh>>::_Vector_impl" }
%"struct.std::_Vector_base<Assimp::D3DS::Mesh, std::allocator<Assimp::D3DS::Mesh>>::_Vector_impl" = type { %"struct.std::_Vector_base<Assimp::D3DS::Mesh, std::allocator<Assimp::D3DS::Mesh>>::_Vector_impl_data" }
%"struct.std::_Vector_base<Assimp::D3DS::Mesh, std::allocator<Assimp::D3DS::Mesh>>::_Vector_impl_data" = type { ptr, ptr, ptr }
%"class.std::vector.8" = type { %"struct.std::_Vector_base.9" }
%"struct.std::_Vector_base.9" = type { %"struct.std::_Vector_base<aiCamera *, std::allocator<aiCamera *>>::_Vector_impl" }
%"struct.std::_Vector_base<aiCamera *, std::allocator<aiCamera *>>::_Vector_impl" = type { %"struct.std::_Vector_base<aiCamera *, std::allocator<aiCamera *>>::_Vector_impl_data" }
%"struct.std::_Vector_base<aiCamera *, std::allocator<aiCamera *>>::_Vector_impl_data" = type { ptr, ptr, ptr }
%"class.std::vector.13" = type { %"struct.std::_Vector_base.14" }
%"struct.std::_Vector_base.14" = type { %"struct.std::_Vector_base<aiLight *, std::allocator<aiLight *>>::_Vector_impl" }
%"struct.std::_Vector_base<aiLight *, std::allocator<aiLight *>>::_Vector_impl" = type { %"struct.std::_Vector_base<aiLight *, std::allocator<aiLight *>>::_Vector_impl_data" }
%"struct.std::_Vector_base<aiLight *, std::allocator<aiLight *>>::_Vector_impl_data" = type { ptr, ptr, ptr }
%struct.aiString = type { i32, [1024 x i8] }
%struct.aiScene = type { i32, ptr, i32, ptr, i32, ptr, i32, ptr, i32, ptr, i32, ptr, i32, ptr, ptr, %struct.aiString, i32, ptr, ptr }

; Function Attrs: mustprogress nounwind uwtable
define linkonce_odr hidden noundef nonnull align 8 dereferenceable(8) ptr @_ZNSt6vectorIP8aiCameraSaIS1_EEixEm(ptr noundef nonnull align 8 dereferenceable(24) %0, i64 noundef %1) #2 comdat align 2 {
  %3 = alloca ptr, align 8
  %4 = alloca i64, align 8
  store ptr %0, ptr %3, align 8
  store i64 %1, ptr %4, align 8
  %5 = load ptr, ptr %3, align 8
  %6 = getelementptr inbounds nuw %"struct.std::_Vector_base.9", ptr %5, i32 0, i32 0
  %7 = getelementptr inbounds nuw %"struct.std::_Vector_base<aiCamera *, std::allocator<aiCamera *>>::_Vector_impl_data", ptr %6, i32 0, i32 0
  %8 = load ptr, ptr %7, align 8
  %9 = load i64, ptr %4, align 8
  %10 = getelementptr inbounds nuw ptr, ptr %8, i64 %9
  ret ptr %10
}

; Function Attrs: mustprogress nounwind uwtable
define linkonce_odr hidden noundef i64 @_ZNKSt6vectorIP8aiCameraSaIS1_EE4sizeEv(ptr noundef nonnull align 8 dereferenceable(24) %0) #2 comdat align 2 {
  %2 = alloca ptr, align 8
  store ptr %0, ptr %2, align 8
  %3 = load ptr, ptr %2, align 8
  %4 = getelementptr inbounds nuw %"struct.std::_Vector_base.9", ptr %3, i32 0, i32 0
  %5 = getelementptr inbounds nuw %"struct.std::_Vector_base<aiCamera *, std::allocator<aiCamera *>>::_Vector_impl_data", ptr %4, i32 0, i32 1
  %6 = load ptr, ptr %5, align 8
  %7 = getelementptr inbounds nuw %"struct.std::_Vector_base.9", ptr %3, i32 0, i32 0
  %8 = getelementptr inbounds nuw %"struct.std::_Vector_base<aiCamera *, std::allocator<aiCamera *>>::_Vector_impl_data", ptr %7, i32 0, i32 0
  %9 = load ptr, ptr %8, align 8
  %10 = ptrtoint ptr %6 to i64
  %11 = ptrtoint ptr %9 to i64
  %12 = sub i64 %10, %11
  %13 = sdiv exact i64 %12, 8
  ret i64 %13
}

; Function Attrs: mustprogress nounwind uwtable
define linkonce_odr hidden noundef nonnull align 8 dereferenceable(8) ptr @_ZNSt6vectorIP7aiLightSaIS1_EEixEm(ptr noundef nonnull align 8 dereferenceable(24) %0, i64 noundef %1) #2 comdat align 2 {
  %3 = alloca ptr, align 8
  %4 = alloca i64, align 8
  store ptr %0, ptr %3, align 8
  store i64 %1, ptr %4, align 8
  %5 = load ptr, ptr %3, align 8
  %6 = getelementptr inbounds nuw %"struct.std::_Vector_base.14", ptr %5, i32 0, i32 0
  %7 = getelementptr inbounds nuw %"struct.std::_Vector_base<aiLight *, std::allocator<aiLight *>>::_Vector_impl_data", ptr %6, i32 0, i32 0
  %8 = load ptr, ptr %7, align 8
  %9 = load i64, ptr %4, align 8
  %10 = getelementptr inbounds nuw ptr, ptr %8, i64 %9
  ret ptr %10
}

; Function Attrs: mustprogress nounwind uwtable
define linkonce_odr hidden noundef i64 @_ZNKSt6vectorIP7aiLightSaIS1_EE4sizeEv(ptr noundef nonnull align 8 dereferenceable(24) %0) #2 comdat align 2 {
  %2 = alloca ptr, align 8
  store ptr %0, ptr %2, align 8
  %3 = load ptr, ptr %2, align 8
  %4 = getelementptr inbounds nuw %"struct.std::_Vector_base.14", ptr %3, i32 0, i32 0
  %5 = getelementptr inbounds nuw %"struct.std::_Vector_base<aiLight *, std::allocator<aiLight *>>::_Vector_impl_data", ptr %4, i32 0, i32 1
  %6 = load ptr, ptr %5, align 8
  %7 = getelementptr inbounds nuw %"struct.std::_Vector_base.14", ptr %3, i32 0, i32 0
  %8 = getelementptr inbounds nuw %"struct.std::_Vector_base<aiLight *, std::allocator<aiLight *>>::_Vector_impl_data", ptr %7, i32 0, i32 0
  %9 = load ptr, ptr %8, align 8
  %10 = ptrtoint ptr %6 to i64
  %11 = ptrtoint ptr %9 to i64
  %12 = sub i64 %10, %11
  %13 = sdiv exact i64 %12, 8
  ret i64 %13
}

; Function Attrs: mustprogress nounwind uwtable
define linkonce_odr hidden noundef nonnull align 8 dereferenceable(689) ptr @_ZNSt6vectorIN6Assimp4D3DS8MaterialESaIS2_EEixEm(ptr noundef nonnull align 8 dereferenceable(24) %0, i64 noundef %1) #2 comdat align 2 {
  %3 = alloca ptr, align 8
  %4 = alloca i64, align 8
  store ptr %0, ptr %3, align 8
  store i64 %1, ptr %4, align 8
  %5 = load ptr, ptr %3, align 8
  %6 = getelementptr inbounds nuw %"struct.std::_Vector_base", ptr %5, i32 0, i32 0
  %7 = getelementptr inbounds nuw %"struct.std::_Vector_base<Assimp::D3DS::Material, std::allocator<Assimp::D3DS::Material>>::_Vector_impl_data", ptr %6, i32 0, i32 0
  %8 = load ptr, ptr %7, align 8
  %9 = load i64, ptr %4, align 8
  %10 = getelementptr inbounds nuw %"struct.Assimp::D3DS::Material", ptr %8, i64 %9
  ret ptr %10
}

; Function Attrs: mustprogress nounwind uwtable
define linkonce_odr hidden noundef i64 @_ZNKSt6vectorIN6Assimp4D3DS8MaterialESaIS2_EE4sizeEv(ptr noundef nonnull align 8 dereferenceable(24) %0) #2 comdat align 2 {
  %2 = alloca ptr, align 8
  store ptr %0, ptr %2, align 8
  %3 = load ptr, ptr %2, align 8
  %4 = getelementptr inbounds nuw %"struct.std::_Vector_base", ptr %3, i32 0, i32 0
  %5 = getelementptr inbounds nuw %"struct.std::_Vector_base<Assimp::D3DS::Material, std::allocator<Assimp::D3DS::Material>>::_Vector_impl_data", ptr %4, i32 0, i32 1
  %6 = load ptr, ptr %5, align 8
  %7 = getelementptr inbounds nuw %"struct.std::_Vector_base", ptr %3, i32 0, i32 0
  %8 = getelementptr inbounds nuw %"struct.std::_Vector_base<Assimp::D3DS::Material, std::allocator<Assimp::D3DS::Material>>::_Vector_impl_data", ptr %7, i32 0, i32 0
  %9 = load ptr, ptr %8, align 8
  %10 = ptrtoint ptr %6 to i64
  %11 = ptrtoint ptr %9 to i64
  %12 = sub i64 %10, %11
  %13 = sdiv exact i64 %12, 696
  ret i64 %13
}

; Function Attrs: mustprogress uwtable
define hidden void @_ZN6Assimp19Discreet3DSImporter12ConvertSceneEP7aiScene(ptr noundef nonnull align 8 dereferenceable(168) %0, ptr noundef %1) #0 align 2 personality ptr @__gxx_personality_v0 {
  %3 = alloca ptr, align 8
  %4 = alloca ptr, align 8
  %5 = alloca i32, align 4
  %6 = alloca ptr, align 8
  %7 = alloca ptr, align 8
  %8 = alloca i32, align 4
  store ptr %0, ptr %3, align 8
  store ptr %1, ptr %4, align 8
  %9 = load ptr, ptr %3, align 8
  %10 = getelementptr inbounds nuw %"class.Assimp::Discreet3DSImporter", ptr %9, i32 0, i32 6
  %11 = load ptr, ptr %10, align 8
  %12 = getelementptr inbounds nuw %"struct.Assimp::D3DS::Scene", ptr %11, i32 0, i32 0
  %13 = call noundef i64 @_ZNKSt6vectorIN6Assimp4D3DS8MaterialESaIS2_EE4sizeEv(ptr noundef nonnull align 8 dereferenceable(24) %12) #18
  %14 = trunc i64 %13 to i32
  %15 = load ptr, ptr %4, align 8
  %16 = getelementptr inbounds nuw %struct.aiScene, ptr %15, i32 0, i32 4
  store i32 %14, ptr %16, align 8
  %17 = load ptr, ptr %4, align 8
  %18 = getelementptr inbounds nuw %struct.aiScene, ptr %17, i32 0, i32 4
  %19 = load i32, ptr %18, align 8
  %20 = zext i32 %19 to i64
  %21 = call { i64, i1 } @llvm.umul.with.overflow.i64(i64 %20, i64 8)
  %22 = extractvalue { i64, i1 } %21, 1
  %23 = extractvalue { i64, i1 } %21, 0
  %24 = select i1 %22, i64 -1, i64 %23
  %25 = call noalias noundef nonnull ptr @_Znam(i64 noundef %24) #22
  %26 = load ptr, ptr %4, align 8
  %27 = getelementptr inbounds nuw %struct.aiScene, ptr %26, i32 0, i32 5
  store ptr %25, ptr %27, align 8
  call void @llvm.lifetime.start.p0(i64 4, ptr %5) #18
  store i32 0, ptr %5, align 4
  br label %28

28:                                               ; preds = %52, %2
  %29 = load i32, ptr %5, align 4
  %30 = load ptr, ptr %4, align 8
  %31 = getelementptr inbounds nuw %struct.aiScene, ptr %30, i32 0, i32 4
  %32 = load i32, ptr %31, align 8
  %33 = icmp ult i32 %29, %32
  br i1 %33, label %35, label %34

34:                                               ; preds = %28
  call void @llvm.lifetime.end.p0(i64 4, ptr %5) #18
  br label %59

35:                                               ; preds = %28
  call void @llvm.lifetime.start.p0(i64 8, ptr %6) #18
  %36 = call noalias noundef nonnull ptr @_Znwm(i64 noundef 16) #22
  invoke void @_ZN10aiMaterialC1Ev(ptr noundef nonnull align 8 dereferenceable(16) %36)
          to label %37 unwind label %55

37:                                               ; preds = %35
  store ptr %36, ptr %6, align 8
  %38 = getelementptr inbounds nuw %"class.Assimp::Discreet3DSImporter", ptr %9, i32 0, i32 6
  %39 = load ptr, ptr %38, align 8
  %40 = getelementptr inbounds nuw %"struct.Assimp::D3DS::Scene", ptr %39, i32 0, i32 0
  %41 = load i32, ptr %5, align 4
  %42 = zext i32 %41 to i64
  %43 = call noundef nonnull align 8 dereferenceable(689) ptr @_ZNSt6vectorIN6Assimp4D3DS8MaterialESaIS2_EEixEm(ptr noundef nonnull align 8 dereferenceable(24) %40, i64 noundef %42) #18
  %44 = load ptr, ptr %6, align 8
  call void @_ZN6Assimp19Discreet3DSImporter15ConvertMaterialERNS_4D3DS8MaterialER10aiMaterial(ptr noundef nonnull align 8 dereferenceable(168) %9, ptr noundef nonnull align 8 dereferenceable(689) %43, ptr noundef nonnull align 8 dereferenceable(16) %44)
  %45 = load ptr, ptr %6, align 8
  %46 = load ptr, ptr %4, align 8
  %47 = getelementptr inbounds nuw %struct.aiScene, ptr %46, i32 0, i32 5
  %48 = load ptr, ptr %47, align 8
  %49 = load i32, ptr %5, align 4
  %50 = zext i32 %49 to i64
  %51 = getelementptr inbounds nuw ptr, ptr %48, i64 %50
  store ptr %45, ptr %51, align 8
  call void @llvm.lifetime.end.p0(i64 8, ptr %6) #18
  br label %52

52:                                               ; preds = %37
  %53 = load i32, ptr %5, align 4
  %54 = add i32 %53, 1
  store i32 %54, ptr %5, align 4
  br label %28, !llvm.loop !35

55:                                               ; preds = %35
  %56 = landingpad { ptr, i32 }
          cleanup
  %57 = extractvalue { ptr, i32 } %56, 0
  store ptr %57, ptr %7, align 8
  %58 = extractvalue { ptr, i32 } %56, 1
  store i32 %58, ptr %8, align 4
  call void @_ZdlPvm(ptr noundef %36, i64 noundef 16) #23
  call void @llvm.lifetime.end.p0(i64 8, ptr %6) #18
  call void @llvm.lifetime.end.p0(i64 4, ptr %5) #18
  br label %133

59:                                               ; preds = %34
  %60 = load ptr, ptr %4, align 8
  call void @_ZN6Assimp19Discreet3DSImporter13ConvertMeshesEP7aiScene(ptr noundef nonnull align 8 dereferenceable(168) %9, ptr noundef %60)
  %61 = getelementptr inbounds nuw %"class.Assimp::Discreet3DSImporter", ptr %9, i32 0, i32 6
  %62 = load ptr, ptr %61, align 8
  %63 = getelementptr inbounds nuw %"struct.Assimp::D3DS::Scene", ptr %62, i32 0, i32 3
  %64 = call noundef i64 @_ZNKSt6vectorIP7aiLightSaIS1_EE4sizeEv(ptr noundef nonnull align 8 dereferenceable(24) %63) #18
  %65 = trunc i64 %64 to i32
  %66 = load ptr, ptr %4, align 8
  %67 = getelementptr inbounds nuw %struct.aiScene, ptr %66, i32 0, i32 10
  store i32 %65, ptr %67, align 8
  %68 = load ptr, ptr %4, align 8
  %69 = getelementptr inbounds nuw %struct.aiScene, ptr %68, i32 0, i32 10
  %70 = load i32, ptr %69, align 8
  %71 = icmp ne i32 %70, 0
  br i1 %71, label %72, label %96

72:                                               ; preds = %59
  %73 = load ptr, ptr %4, align 8
  %74 = getelementptr inbounds nuw %struct.aiScene, ptr %73, i32 0, i32 10
  %75 = load i32, ptr %74, align 8
  %76 = zext i32 %75 to i64
  %77 = call { i64, i1 } @llvm.umul.with.overflow.i64(i64 %76, i64 8)
  %78 = extractvalue { i64, i1 } %77, 1
  %79 = extractvalue { i64, i1 } %77, 0
  %80 = select i1 %78, i64 -1, i64 %79
  %81 = call noalias noundef nonnull ptr @_Znam(i64 noundef %80) #22
  %82 = load ptr, ptr %4, align 8
  %83 = getelementptr inbounds nuw %struct.aiScene, ptr %82, i32 0, i32 11
  store ptr %81, ptr %83, align 8
  %84 = load ptr, ptr %4, align 8
  %85 = getelementptr inbounds nuw %struct.aiScene, ptr %84, i32 0, i32 11
  %86 = load ptr, ptr %85, align 8
  %87 = getelementptr inbounds nuw %"class.Assimp::Discreet3DSImporter", ptr %9, i32 0, i32 6
  %88 = load ptr, ptr %87, align 8
  %89 = getelementptr inbounds nuw %"struct.Assimp::D3DS::Scene", ptr %88, i32 0, i32 3
  %90 = call noundef nonnull align 8 dereferenceable(8) ptr @_ZNSt6vectorIP7aiLightSaIS1_EEixEm(ptr noundef nonnull align 8 dereferenceable(24) %89, i64 noundef 0) #18
  %91 = load ptr, ptr %4, align 8
  %92 = getelementptr inbounds nuw %struct.aiScene, ptr %91, i32 0, i32 10
  %93 = load i32, ptr %92, align 8
  %94 = zext i32 %93 to i64
  %95 = mul i64 8, %94
  call void @llvm.memcpy.p0.p0.i64(ptr align 8 %86, ptr align 8 %90, i64 %95, i1 false)
  br label %96

96:                                               ; preds = %72, %59
  %97 = getelementptr inbounds nuw %"class.Assimp::Discreet3DSImporter", ptr %9, i32 0, i32 6
  %98 = load ptr, ptr %97, align 8
  %99 = getelementptr inbounds nuw %"struct.Assimp::D3DS::Scene", ptr %98, i32 0, i32 2
  %100 = call noundef i64 @_ZNKSt6vectorIP8aiCameraSaIS1_EE4sizeEv(ptr noundef nonnull align 8 dereferenceable(24) %99) #18
  %101 = trunc i64 %100 to i32
  %102 = load ptr, ptr %4, align 8
  %103 = getelementptr inbounds nuw %struct.aiScene, ptr %102, i32 0, i32 12
  store i32 %101, ptr %103, align 8
  %104 = load ptr, ptr %4, align 8
  %105 = getelementptr inbounds nuw %struct.aiScene, ptr %104, i32 0, i32 12
  %106 = load i32, ptr %105, align 8
  %107 = icmp ne i32 %106, 0
  br i1 %107, label %108, label %132

108:                                              ; preds = %96
  %109 = load ptr, ptr %4, align 8
  %110 = getelementptr inbounds nuw %struct.aiScene, ptr %109, i32 0, i32 12
  %111 = load i32, ptr %110, align 8
  %112 = zext i32 %111 to i64
  %113 = call { i64, i1 } @llvm.umul.with.overflow.i64(i64 %112, i64 8)
  %114 = extractvalue { i64, i1 } %113, 1
  %115 = extractvalue { i64, i1 } %113, 0
  %116 = select i1 %114, i64 -1, i64 %115
  %117 = call noalias noundef nonnull ptr @_Znam(i64 noundef %116) #22
  %118 = load ptr, ptr %4, align 8
  %119 = getelementptr inbounds nuw %struct.aiScene, ptr %118, i32 0, i32 13
  store ptr %117, ptr %119, align 8
  %120 = load ptr, ptr %4, align 8
  %121 = getelementptr inbounds nuw %struct.aiScene, ptr %120, i32 0, i32 13
  %122 = load ptr, ptr %121, align 8
  %123 = getelementptr inbounds nuw %"class.Assimp::Discreet3DSImporter", ptr %9, i32 0, i32 6
  %124 = load ptr, ptr %123, align 8
  %125 = getelementptr inbounds nuw %"struct.Assimp::D3DS::Scene", ptr %124, i32 0, i32 2
  %126 = call noundef nonnull align 8 dereferenceable(8) ptr @_ZNSt6vectorIP8aiCameraSaIS1_EEixEm(ptr noundef nonnull align 8 dereferenceable(24) %125, i64 noundef 0) #18
  %127 = load ptr, ptr %4, align 8
  %128 = getelementptr inbounds nuw %struct.aiScene, ptr %127, i32 0, i32 12
  %129 = load i32, ptr %128, align 8
  %130 = zext i32 %129 to i64
  %131 = mul i64 8, %130
  call void @llvm.memcpy.p0.p0.i64(ptr align 8 %122, ptr align 8 %126, i64 %131, i1 false)
  br label %132

132:                                              ; preds = %108, %96
  ret void

133:                                              ; preds = %55
  %134 = load ptr, ptr %7, align 8
  %135 = load i32, ptr %8, align 4
  %136 = insertvalue { ptr, i32 } poison, ptr %134, 0
  %137 = insertvalue { ptr, i32 } %136, i32 %135, 1
  resume { ptr, i32 } %137
}