; Function Attrs: mustprogress uwtable
define hidden void @_ZN6Assimp19Discreet3DSImporter12ConvertSceneEP7aiScene(ptr noundef nonnull align 8 captures(address) dereferenceable(168) %0, ptr noundef captures(none) initializes((32, 36), (40, 48)) %1) local_unnamed_addr #0 align 2 personality ptr @__gxx_personality_v0 {
  %3 = getelementptr inbounds nuw i8, ptr %0, i64 104
  %4 = load ptr, ptr %3, align 8
  %5 = getelementptr inbounds nuw i8, ptr %4, i64 8
  %6 = load ptr, ptr %5, align 8
  %7 = load ptr, ptr %4, align 8
  %8 = ptrtoint ptr %6 to i64
  %9 = ptrtoint ptr %7 to i64
  %10 = sub i64 %8, %9
  %11 = sdiv exact i64 %10, 696
  %12 = trunc i64 %11 to i32
  %13 = getelementptr inbounds nuw i8, ptr %1, i64 32
  store i32 %12, ptr %13, align 8
  %14 = shl nsw i64 %11, 3
  %15 = and i64 %14, 34359738360
  %16 = tail call noalias noundef nonnull ptr @_Znam(i64 noundef %15) #30
  %17 = getelementptr inbounds nuw i8, ptr %1, i64 40
  store ptr %16, ptr %17, align 8
  %.not30 = icmp eq i32 %12, 0
  br i1 %.not30, label %._crit_edge, label %.lr.ph

._crit_edge:                                      ; preds = %30, %2
  tail call void @_ZN6Assimp19Discreet3DSImporter13ConvertMeshesEP7aiScene(ptr noundef nonnull align 8 dereferenceable(168) %0, ptr noundef nonnull %1)
  %18 = load ptr, ptr %3, align 8
  %19 = getelementptr inbounds nuw i8, ptr %18, i64 72
  %20 = getelementptr inbounds nuw i8, ptr %18, i64 80
  %21 = load ptr, ptr %20, align 8
  %22 = load ptr, ptr %19, align 8
  %23 = ptrtoint ptr %21 to i64
  %24 = ptrtoint ptr %22 to i64
  %25 = sub i64 %23, %24
  %26 = lshr exact i64 %25, 3
  %27 = trunc i64 %26 to i32
  %28 = getelementptr inbounds nuw i8, ptr %1, i64 80
  store i32 %27, ptr %28, align 8
  %.not = icmp eq i32 %27, 0
  br i1 %.not, label %._crit_edge._crit_edge, label %41

._crit_edge._crit_edge:                           ; preds = %._crit_edge
  %.pre = load ptr, ptr %3, align 8
  br label %48

.lr.ph:                                           ; preds = %2, %30
  %indvars.iv = phi i64 [ %indvars.iv.next, %30 ], [ 0, %2 ]
  %29 = tail call noalias noundef nonnull dereferenceable(16) ptr @_Znwm(i64 noundef 16) #30
  invoke void @_ZN10aiMaterialC1Ev(ptr noundef nonnull align 8 dereferenceable(16) %29)
          to label %30 unwind label %39

30:                                               ; preds = %.lr.ph
  %31 = load ptr, ptr %3, align 8
  %32 = load ptr, ptr %31, align 8
  %33 = getelementptr inbounds nuw %"struct.Assimp::D3DS::Material", ptr %32, i64 %indvars.iv
  tail call void @_ZN6Assimp19Discreet3DSImporter15ConvertMaterialERNS_4D3DS8MaterialER10aiMaterial(ptr noundef nonnull align 8 dereferenceable(168) %0, ptr noundef nonnull align 8 dereferenceable(689) %33, ptr noundef nonnull align 8 dereferenceable(16) %29)
  %34 = load ptr, ptr %17, align 8
  %35 = getelementptr inbounds nuw ptr, ptr %34, i64 %indvars.iv
  store ptr %29, ptr %35, align 8
  %indvars.iv.next = add nuw nsw i64 %indvars.iv, 1
  %36 = load i32, ptr %13, align 8
  %37 = zext i32 %36 to i64
  %38 = icmp samesign ult i64 %indvars.iv.next, %37
  br i1 %38, label %.lr.ph, label %._crit_edge, !llvm.loop !43

39:                                               ; preds = %.lr.ph
  %40 = landingpad { ptr, i32 }
          cleanup
  tail call void @_ZdlPvm(ptr noundef nonnull %29, i64 noundef 16) #28
  resume { ptr, i32 } %40

41:                                               ; preds = %._crit_edge
  %42 = and i64 %25, 34359738360
  %43 = tail call noalias noundef nonnull ptr @_Znam(i64 noundef %42) #30
  %44 = getelementptr inbounds nuw i8, ptr %1, i64 88
  store ptr %43, ptr %44, align 8
  %45 = load ptr, ptr %3, align 8
  %46 = getelementptr inbounds nuw i8, ptr %45, i64 72
  %47 = load ptr, ptr %46, align 8
  tail call void @llvm.memcpy.p0.p0.i64(ptr nonnull align 8 %43, ptr nonnull align 8 %47, i64 %42, i1 false)
  br label %48

48:                                               ; preds = %._crit_edge._crit_edge, %41
  %49 = phi ptr [ %.pre, %._crit_edge._crit_edge ], [ %45, %41 ]
  %50 = getelementptr inbounds nuw i8, ptr %49, i64 48
  %51 = getelementptr inbounds nuw i8, ptr %49, i64 56
  %52 = load ptr, ptr %51, align 8
  %53 = load ptr, ptr %50, align 8
  %54 = ptrtoint ptr %52 to i64
  %55 = ptrtoint ptr %53 to i64
  %56 = sub i64 %54, %55
  %57 = lshr exact i64 %56, 3
  %58 = trunc i64 %57 to i32
  %59 = getelementptr inbounds nuw i8, ptr %1, i64 96
  store i32 %58, ptr %59, align 8
  %.not28 = icmp eq i32 %58, 0
  br i1 %.not28, label %67, label %60

60:                                               ; preds = %48
  %61 = and i64 %56, 34359738360
  %62 = tail call noalias noundef nonnull ptr @_Znam(i64 noundef %61) #30
  %63 = getelementptr inbounds nuw i8, ptr %1, i64 104
  store ptr %62, ptr %63, align 8
  %64 = load ptr, ptr %3, align 8
  %65 = getelementptr inbounds nuw i8, ptr %64, i64 48
  %66 = load ptr, ptr %65, align 8
  tail call void @llvm.memcpy.p0.p0.i64(ptr nonnull align 8 %62, ptr nonnull align 8 %66, i64 %61, i1 false)
  br label %67

67:                                               ; preds = %60, %48
  ret void
}